; Function Attrs: mustprogress uwtable
define hidden noundef ptr @_ZN7datalog20karr_relation_plugin22mk_filter_identical_fnERKNS_13relation_baseEjPKj(ptr noundef nonnull readnone align 8 dereferenceable(184) %this, ptr nocapture noundef nonnull readonly align 8 dereferenceable(28) %t, i32 noundef %col_cnt, ptr nocapture noundef readonly %identical_cols) unnamed_addr #3 align 2 personality ptr @__gxx_personality_v0 {
entry:
  %m_plugin.i.i = getelementptr inbounds i8, ptr %t, i64 8
  %0 = load ptr, ptr %m_plugin.i.i, align 8
  %cmp.i = icmp eq ptr %0, %this
  br i1 %cmp.i, label %if.end, label %return

if.end:                                           ; preds = %entry
  %call2 = tail call noalias noundef ptr @_ZN6memory8allocateEm(i64 noundef 16)
  store ptr getelementptr inbounds ({ [7 x ptr] }, ptr @_ZTVN7datalog20karr_relation_plugin19filter_identical_fnE, i64 0, i32 0, i64 2), ptr %call2, align 8
  %m_identical_cols.i = getelementptr inbounds i8, ptr %call2, i64 8
  store ptr null, ptr %m_identical_cols.i, align 8
  %cmp3.not.i.i.i = icmp eq i32 %col_cnt, 0
  br i1 %cmp3.not.i.i.i, label %return, label %for.body.preheader.i.i.i

for.body.preheader.i.i.i:                         ; preds = %if.end
  %wide.trip.count.i.i.i = zext i32 %col_cnt to i64
  br label %for.body.i.i.i

for.bodythread-pre-split.i.i.i:                   ; preds = %_ZN6vectorIjLb0EjE9push_backERKj.exit.i.i.i
  %.pr.i.i.i = load ptr, ptr %m_identical_cols.i, align 8
  br label %for.body.i.i.i

for.body.i.i.i:                                   ; preds = %for.bodythread-pre-split.i.i.i, %for.body.preheader.i.i.i
  %1 = phi ptr [ %.pr.i.i.i, %for.bodythread-pre-split.i.i.i ], [ null, %for.body.preheader.i.i.i ]
  %indvars.iv.i.i.i = phi i64 [ %indvars.iv.next.i.i.i, %for.bodythread-pre-split.i.i.i ], [ 0, %for.body.preheader.i.i.i ]
  %arrayidx.i.i.i = getelementptr inbounds i32, ptr %identical_cols, i64 %indvars.iv.i.i.i
  %cmp.i.i.i.i = icmp eq ptr %1, null
  br i1 %cmp.i.i.i.i, label %if.then.i.i.i.i, label %lor.lhs.false.i.i.i.i

lor.lhs.false.i.i.i.i:                            ; preds = %for.body.i.i.i
  %arrayidx.i.i.i.i = getelementptr inbounds i8, ptr %1, i64 -4
  %2 = load i32, ptr %arrayidx.i.i.i.i, align 4
  %arrayidx4.i.i.i.i = getelementptr inbounds i8, ptr %1, i64 -8
  %3 = load i32, ptr %arrayidx4.i.i.i.i, align 4
  %cmp5.i.i.i.i = icmp eq i32 %2, %3
  br i1 %cmp5.i.i.i.i, label %if.then.i.i.i.i, label %_ZN6vectorIjLb0EjE9push_backERKj.exit.i.i.i

if.then.i.i.i.i:                                  ; preds = %lor.lhs.false.i.i.i.i, %for.body.i.i.i
  tail call void @_ZN6vectorIjLb0EjE13expand_vectorEv(ptr noundef nonnull align 8 dereferenceable(8) %m_identical_cols.i)
  %.pre.i.i.i.i = load ptr, ptr %m_identical_cols.i, align 8
  %arrayidx8.phi.trans.insert.i.i.i.i = getelementptr inbounds i8, ptr %.pre.i.i.i.i, i64 -4
  %.pre1.i.i.i.i = load i32, ptr %arrayidx8.phi.trans.insert.i.i.i.i, align 4
  br label %_ZN6vectorIjLb0EjE9push_backERKj.exit.i.i.i

_ZN6vectorIjLb0EjE9push_backERKj.exit.i.i.i:      ; preds = %if.then.i.i.i.i, %lor.lhs.false.i.i.i.i
  %4 = phi i32 [ %.pre1.i.i.i.i, %if.then.i.i.i.i ], [ %2, %lor.lhs.false.i.i.i.i ]
  %5 = phi ptr [ %.pre.i.i.i.i, %if.then.i.i.i.i ], [ %1, %lor.lhs.false.i.i.i.i ]
  %idx.ext.i.i.i.i = zext i32 %4 to i64
  %add.ptr.i.i.i.i = getelementptr inbounds i32, ptr %5, i64 %idx.ext.i.i.i.i
  %6 = load i32, ptr %arrayidx.i.i.i, align 4
  store i32 %6, ptr %add.ptr.i.i.i.i, align 4
  %7 = load ptr, ptr %m_identical_cols.i, align 8
  %arrayidx10.i.i.i.i = getelementptr inbounds i8, ptr %7, i64 -4
  %8 = load i32, ptr %arrayidx10.i.i.i.i, align 4
  %inc.i.i.i.i = add i32 %8, 1
  store i32 %inc.i.i.i.i, ptr %arrayidx10.i.i.i.i, align 4
  %indvars.iv.next.i.i.i = add nuw nsw i64 %indvars.iv.i.i.i, 1
  %exitcond.not.i.i.i = icmp eq i64 %indvars.iv.next.i.i.i, %wide.trip.count.i.i.i
  br i1 %exitcond.not.i.i.i, label %return, label %for.bodythread-pre-split.i.i.i, !llvm.loop !4

return:                                           ; preds = %_ZN6vectorIjLb0EjE9push_backERKj.exit.i.i.i, %if.end, %entry
  %retval.0 = phi ptr [ null, %entry ], [ %call2, %if.end ], [ %call2, %_ZN6vectorIjLb0EjE9push_backERKj.exit.i.i.i ]
  ret ptr %retval.0
}